target datalayout = "e-m:e-p270:32:32-p271:32:32-p272:64:64-i64:64-i128:128-f80:128-n8:16:32:64-S128"
target triple = "x86_64-pc-linux-gnu"

@hf_opcua_nodeid_encodingmask = internal global i32 0, align 4
@hf_opcua_nodeid_nsindex = internal global i32 0, align 4
@hf_opcua_nodeid_numeric = internal global i32 0, align 4
@hf_opcua_nodeid_string = internal global i32 0, align 4
@hf_opcua_nodeid_guid = internal global i32 0, align 4
@hf_opcua_nodeid_bytestring = internal global i32 0, align 4
@ett_opcua_nodeid = internal global i32 0, align 4
@.str.213 = private unnamed_addr constant [11 x i8] c"%s: NodeId\00", align 1

; Function Attrs: null_pointer_is_valid sspstrong uwtable
define hidden ptr @parseGuid(ptr noundef %0, ptr noundef %1, ptr noundef %2, ptr noundef %3, i32 noundef %4) #0 {
  %6 = alloca ptr, align 8
  %7 = alloca ptr, align 8
  %8 = alloca ptr, align 8
  %9 = alloca ptr, align 8
  %10 = alloca i32, align 4
  %11 = alloca ptr, align 8
  store ptr %0, ptr %6, align 8
  store ptr %1, ptr %7, align 8
  store ptr %2, ptr %8, align 8
  store ptr %3, ptr %9, align 8
  store i32 %4, ptr %10, align 4
  call void @llvm.lifetime.start.p0(i64 8, ptr %11) #3
  %12 = load ptr, ptr %6, align 8
  %13 = load i32, ptr %10, align 4
  %14 = load ptr, ptr %7, align 8
  %15 = load ptr, ptr %9, align 8
  %16 = load i32, ptr %15, align 4
  %17 = call ptr @proto_tree_add_item(ptr noundef %12, i32 noundef %13, ptr noundef %14, i32 noundef %16, i32 noundef 16, i32 noundef -2147483648)
  store ptr %17, ptr %11, align 8
  %18 = load ptr, ptr %9, align 8
  %19 = load i32, ptr %18, align 4
  %20 = add i32 %19, 16
  store i32 %20, ptr %18, align 4
  %21 = load ptr, ptr %11, align 8
  call void @llvm.lifetime.end.p0(i64 8, ptr %11) #3
  ret ptr %21
}

; Function Attrs: null_pointer_is_valid sspstrong uwtable
define hidden void @parseNodeId(ptr noundef %0, ptr noundef %1, ptr noundef %2, ptr noundef %3, ptr noundef %4) #0 {
  %6 = alloca ptr, align 8
  %7 = alloca ptr, align 8
  %8 = alloca ptr, align 8
  %9 = alloca ptr, align 8
  %10 = alloca ptr, align 8
  %11 = alloca ptr, align 8
  %12 = alloca ptr, align 8
  %13 = alloca i32, align 4
  %14 = alloca i8, align 1
  store ptr %0, ptr %6, align 8
  store ptr %1, ptr %7, align 8
  store ptr %2, ptr %8, align 8
  store ptr %3, ptr %9, align 8
  store ptr %4, ptr %10, align 8
  call void @llvm.lifetime.start.p0(i64 8, ptr %11) #3
  call void @llvm.lifetime.start.p0(i64 8, ptr %12) #3
  %15 = load ptr, ptr %6, align 8
  %16 = load ptr, ptr %7, align 8
  %17 = load ptr, ptr %9, align 8
  %18 = load i32, ptr %17, align 4
  %19 = load i32, ptr @ett_opcua_nodeid, align 4
  %20 = load ptr, ptr %10, align 8
  %21 = call ptr (ptr, ptr, i32, i32, i32, ptr, ptr, ...) @proto_tree_add_subtree_format(ptr noundef %15, ptr noundef %16, i32 noundef %18, i32 noundef -1, i32 noundef %19, ptr noundef %11, ptr noundef @.str.213, ptr noundef %20)
  store ptr %21, ptr %12, align 8
  call void @llvm.lifetime.start.p0(i64 4, ptr %13) #3
  %22 = load ptr, ptr %9, align 8
  %23 = load i32, ptr %22, align 4
  store i32 %23, ptr %13, align 4
  call void @llvm.lifetime.start.p0(i64 1, ptr %14) #3
  %24 = load ptr, ptr %7, align 8
  %25 = load i32, ptr %13, align 4
  %26 = call zeroext i8 @tvb_get_uint8(ptr noundef %24, i32 noundef %25)
  store i8 %26, ptr %14, align 1
  %27 = load ptr, ptr %12, align 8
  %28 = load i32, ptr @hf_opcua_nodeid_encodingmask, align 4
  %29 = load ptr, ptr %7, align 8
  %30 = load i32, ptr %13, align 4
  %31 = call ptr @proto_tree_add_item(ptr noundef %27, i32 noundef %28, ptr noundef %29, i32 noundef %30, i32 noundef 1, i32 noundef -2147483648)
  %32 = load i32, ptr %13, align 4
  %33 = add i32 %32, 1
  store i32 %33, ptr %13, align 4
  %34 = load i8, ptr %14, align 1
  %35 = zext i8 %34 to i32
  switch i32 %35, label %113 [
    i32 0, label %36
    i32 1, label %44
    i32 2, label %59
    i32 3, label %74
    i32 4, label %87
    i32 5, label %100
  ]

36:                                               ; preds = %5
  %37 = load ptr, ptr %12, align 8
  %38 = load i32, ptr @hf_opcua_nodeid_numeric, align 4
  %39 = load ptr, ptr %7, align 8
  %40 = load i32, ptr %13, align 4
  %41 = call ptr @proto_tree_add_item(ptr noundef %37, i32 noundef %38, ptr noundef %39, i32 noundef %40, i32 noundef 1, i32 noundef -2147483648)
  %42 = load i32, ptr %13, align 4
  %43 = add i32 %42, 1
  store i32 %43, ptr %13, align 4
  br label %113

44:                                               ; preds = %5
  %45 = load ptr, ptr %12, align 8
  %46 = load i32, ptr @hf_opcua_nodeid_nsindex, align 4
  %47 = load ptr, ptr %7, align 8
  %48 = load i32, ptr %13, align 4
  %49 = call ptr @proto_tree_add_item(ptr noundef %45, i32 noundef %46, ptr noundef %47, i32 noundef %48, i32 noundef 1, i32 noundef -2147483648)
  %50 = load i32, ptr %13, align 4
  %51 = add i32 %50, 1
  store i32 %51, ptr %13, align 4
  %52 = load ptr, ptr %12, align 8
  %53 = load i32, ptr @hf_opcua_nodeid_numeric, align 4
  %54 = load ptr, ptr %7, align 8
  %55 = load i32, ptr %13, align 4
  %56 = call ptr @proto_tree_add_item(ptr noundef %52, i32 noundef %53, ptr noundef %54, i32 noundef %55, i32 noundef 2, i32 noundef -2147483648)
  %57 = load i32, ptr %13, align 4
  %58 = add i32 %57, 2
  store i32 %58, ptr %13, align 4
  br label %113

59:                                               ; preds = %5
  %60 = load ptr, ptr %12, align 8
  %61 = load i32, ptr @hf_opcua_nodeid_nsindex, align 4
  %62 = load ptr, ptr %7, align 8
  %63 = load i32, ptr %13, align 4
  %64 = call ptr @proto_tree_add_item(ptr noundef %60, i32 noundef %61, ptr noundef %62, i32 noundef %63, i32 noundef 2, i32 noundef -2147483648)
  %65 = load i32, ptr %13, align 4
  %66 = add i32 %65, 2
  store i32 %66, ptr %13, align 4
  %67 = load ptr, ptr %12, align 8
  %68 = load i32, ptr @hf_opcua_nodeid_numeric, align 4
  %69 = load ptr, ptr %7, align 8
  %70 = load i32, ptr %13, align 4
  %71 = call ptr @proto_tree_add_item(ptr noundef %67, i32 noundef %68, ptr noundef %69, i32 noundef %70, i32 noundef 4, i32 noundef -2147483648)
  %72 = load i32, ptr %13, align 4
  %73 = add i32 %72, 4
  store i32 %73, ptr %13, align 4
  br label %113

74:                                               ; preds = %5
  %75 = load ptr, ptr %12, align 8
  %76 = load i32, ptr @hf_opcua_nodeid_nsindex, align 4
  %77 = load ptr, ptr %7, align 8
  %78 = load i32, ptr %13, align 4
  %79 = call ptr @proto_tree_add_item(ptr noundef %75, i32 noundef %76, ptr noundef %77, i32 noundef %78, i32 noundef 2, i32 noundef -2147483648)
  %80 = load i32, ptr %13, align 4
  %81 = add i32 %80, 2
  store i32 %81, ptr %13, align 4
  %82 = load ptr, ptr %12, align 8
  %83 = load ptr, ptr %7, align 8
  %84 = load ptr, ptr %8, align 8
  %85 = load i32, ptr @hf_opcua_nodeid_string, align 4
  %86 = call ptr @parseString(ptr noundef %82, ptr noundef %83, ptr noundef %84, ptr noundef %13, i32 noundef %85)
  br label %113

87:                                               ; preds = %5
  %88 = load ptr, ptr %12, align 8
  %89 = load i32, ptr @hf_opcua_nodeid_nsindex, align 4
  %90 = load ptr, ptr %7, align 8
  %91 = load i32, ptr %13, align 4
  %92 = call ptr @proto_tree_add_item(ptr noundef %88, i32 noundef %89, ptr noundef %90, i32 noundef %91, i32 noundef 2, i32 noundef -2147483648)
  %93 = load i32, ptr %13, align 4
  %94 = add i32 %93, 2
  store i32 %94, ptr %13, align 4
  %95 = load ptr, ptr %12, align 8
  %96 = load ptr, ptr %7, align 8
  %97 = load ptr, ptr %8, align 8
  %98 = load i32, ptr @hf_opcua_nodeid_guid, align 4
  %99 = call ptr @parseGuid(ptr noundef %95, ptr noundef %96, ptr noundef %97, ptr noundef %13, i32 noundef %98)
  br label %113

100:                                              ; preds = %5
  %101 = load ptr, ptr %12, align 8
  %102 = load i32, ptr @hf_opcua_nodeid_nsindex, align 4
  %103 = load ptr, ptr %7, align 8
  %104 = load i32, ptr %13, align 4
  %105 = call ptr @proto_tree_add_item(ptr noundef %101, i32 noundef %102, ptr noundef %103, i32 noundef %104, i32 noundef 2, i32 noundef -2147483648)
  %106 = load i32, ptr %13, align 4
  %107 = add i32 %106, 2
  store i32 %107, ptr %13, align 4
  %108 = load ptr, ptr %12, align 8
  %109 = load ptr, ptr %7, align 8
  %110 = load ptr, ptr %8, align 8
  %111 = load i32, ptr @hf_opcua_nodeid_bytestring, align 4
  %112 = call ptr @parseByteString(ptr noundef %108, ptr noundef %109, ptr noundef %110, ptr noundef %13, i32 noundef %111)
  br label %113

113:                                              ; preds = %5, %100, %87, %74, %59, %44, %36
  %114 = load ptr, ptr %11, align 8
  %115 = load ptr, ptr %7, align 8
  %116 = load i32, ptr %13, align 4
  call void @proto_item_set_end(ptr noundef %114, ptr noundef %115, i32 noundef %116)
  %117 = load i32, ptr %13, align 4
  %118 = load ptr, ptr %9, align 8
  store i32 %117, ptr %118, align 4
  call void @llvm.lifetime.end.p0(i64 1, ptr %14) #3
  call void @llvm.lifetime.end.p0(i64 4, ptr %13) #3
  call void @llvm.lifetime.end.p0(i64 8, ptr %12) #3
  call void @llvm.lifetime.end.p0(i64 8, ptr %11) #3
  ret void
}