; Function Attrs: null_pointer_is_valid sspstrong uwtable
define hidden void @parseNodeId(ptr noundef %0, ptr noundef %1, ptr noundef readonly captures(none) %2, ptr noundef captures(none) %3, ptr noundef %4) #0 {
  %6 = alloca ptr, align 8
  %7 = alloca i32, align 4
  call void @llvm.lifetime.start.p0(i64 8, ptr nonnull %6) #4
  %8 = load i32, ptr %3, align 4
  %9 = load i32, ptr @ett_opcua_nodeid, align 4
  %10 = call ptr (ptr, ptr, i32, i32, i32, ptr, ptr, ...) @proto_tree_add_subtree_format(ptr noundef %0, ptr noundef %1, i32 noundef %8, i32 noundef -1, i32 noundef %9, ptr noundef nonnull %6, ptr noundef nonnull @.str.213, ptr noundef %4)
  call void @llvm.lifetime.start.p0(i64 4, ptr nonnull %7) #4
  %11 = load i32, ptr %3, align 4
  %12 = call zeroext i8 @tvb_get_uint8(ptr noundef %1, i32 noundef %11)
  %13 = load i32, ptr @hf_opcua_nodeid_encodingmask, align 4
  %14 = call ptr @proto_tree_add_item(ptr noundef %10, i32 noundef %13, ptr noundef %1, i32 noundef %11, i32 noundef 1, i32 noundef -2147483648)
  %15 = add i32 %11, 1
  store i32 %15, ptr %7, align 4
  switch i8 %12, label %53 [
    i8 0, label %16
    i8 1, label %20
    i8 2, label %27
    i8 3, label %34
    i8 4, label %40
    i8 5, label %47
  ]

16:                                               ; preds = %5
  %17 = load i32, ptr @hf_opcua_nodeid_numeric, align 4
  %18 = call ptr @proto_tree_add_item(ptr noundef %10, i32 noundef %17, ptr noundef %1, i32 noundef %15, i32 noundef 1, i32 noundef -2147483648)
  %19 = add i32 %11, 2
  store i32 %19, ptr %7, align 4
  br label %53

20:                                               ; preds = %5
  %21 = load i32, ptr @hf_opcua_nodeid_nsindex, align 4
  %22 = call ptr @proto_tree_add_item(ptr noundef %10, i32 noundef %21, ptr noundef %1, i32 noundef %15, i32 noundef 1, i32 noundef -2147483648)
  %23 = add i32 %11, 2
  %24 = load i32, ptr @hf_opcua_nodeid_numeric, align 4
  %25 = call ptr @proto_tree_add_item(ptr noundef %10, i32 noundef %24, ptr noundef %1, i32 noundef %23, i32 noundef 2, i32 noundef -2147483648)
  %26 = add i32 %11, 4
  store i32 %26, ptr %7, align 4
  br label %53

27:                                               ; preds = %5
  %28 = load i32, ptr @hf_opcua_nodeid_nsindex, align 4
  %29 = call ptr @proto_tree_add_item(ptr noundef %10, i32 noundef %28, ptr noundef %1, i32 noundef %15, i32 noundef 2, i32 noundef -2147483648)
  %30 = add i32 %11, 3
  %31 = load i32, ptr @hf_opcua_nodeid_numeric, align 4
  %32 = call ptr @proto_tree_add_item(ptr noundef %10, i32 noundef %31, ptr noundef %1, i32 noundef %30, i32 noundef 4, i32 noundef -2147483648)
  %33 = add i32 %11, 7
  store i32 %33, ptr %7, align 4
  br label %53

34:                                               ; preds = %5
  %35 = load i32, ptr @hf_opcua_nodeid_nsindex, align 4
  %36 = call ptr @proto_tree_add_item(ptr noundef %10, i32 noundef %35, ptr noundef %1, i32 noundef %15, i32 noundef 2, i32 noundef -2147483648)
  %37 = add i32 %11, 3
  store i32 %37, ptr %7, align 4
  %38 = load i32, ptr @hf_opcua_nodeid_string, align 4
  %39 = call ptr @parseString(ptr noundef %10, ptr noundef %1, ptr noundef %2, ptr noundef nonnull %7, i32 noundef %38)
  br label %53

40:                                               ; preds = %5
  %41 = load i32, ptr @hf_opcua_nodeid_nsindex, align 4
  %42 = call ptr @proto_tree_add_item(ptr noundef %10, i32 noundef %41, ptr noundef %1, i32 noundef %15, i32 noundef 2, i32 noundef -2147483648)
  %43 = add i32 %11, 3
  %44 = load i32, ptr @hf_opcua_nodeid_guid, align 4
  %45 = call ptr @proto_tree_add_item(ptr noundef %10, i32 noundef %44, ptr noundef %1, i32 noundef %43, i32 noundef 16, i32 noundef -2147483648)
  %46 = add i32 %11, 19
  store i32 %46, ptr %7, align 4
  br label %53

47:                                               ; preds = %5
  %48 = load i32, ptr @hf_opcua_nodeid_nsindex, align 4
  %49 = call ptr @proto_tree_add_item(ptr noundef %10, i32 noundef %48, ptr noundef %1, i32 noundef %15, i32 noundef 2, i32 noundef -2147483648)
  %50 = add i32 %11, 3
  store i32 %50, ptr %7, align 4
  %51 = load i32, ptr @hf_opcua_nodeid_bytestring, align 4
  %52 = call ptr @parseByteString(ptr noundef %10, ptr noundef %1, ptr noundef %2, ptr noundef nonnull %7, i32 noundef %51)
  br label %53

53:                                               ; preds = %47, %40, %34, %27, %20, %16, %5
  %54 = load ptr, ptr %6, align 8
  %55 = load i32, ptr %7, align 4
  call void @proto_item_set_end(ptr noundef %54, ptr noundef %1, i32 noundef %55)
  store i32 %55, ptr %3, align 4
  call void @llvm.lifetime.end.p0(i64 4, ptr nonnull %7) #4
  call void @llvm.lifetime.end.p0(i64 8, ptr nonnull %6) #4
  ret void
}